; ModuleID = '29/1918.c'
source_filename = "29/1918.c"
target datalayout = "e-m:e-p270:32:32-p271:32:32-p272:64:64-i64:64-f80:128-n8:16:32:64-S128"
target triple = "x86_64-pc-linux-gnu"

@.str = private unnamed_addr constant [3 x i8] c"%d\00", align 1
@.str.1 = private unnamed_addr constant [6 x i8] c"%.3f\0A\00", align 1

; Function Attrs: noinline nounwind uwtable
define dso_local i32 @main() #0 {
  %1 = alloca i32, align 4
  %2 = alloca i32, align 4
  %3 = alloca i32, align 4
  %4 = alloca i32, align 4
  %5 = alloca double, align 8
  %6 = alloca double, align 8
  %7 = alloca double, align 8
  %8 = alloca [100 x double], align 16
  %9 = alloca double, align 8
  store i32 0, i32* %1, align 4
  %10 = call i32 (i8*, ...) @__isoc99_scanf(i8* getelementptr inbounds ([3 x i8], [3 x i8]* @.str, i64 0, i64 0), i32* %2)
  br label %11

11:                                               ; preds = %65, %0
  %12 = load i32, i32* %2, align 4
  %13 = icmp sgt i32 %12, 0
  br i1 %13, label %14, label %70

14:                                               ; preds = %11
  %15 = call i32 (i8*, ...) @__isoc99_scanf(i8* getelementptr inbounds ([3 x i8], [3 x i8]* @.str, i64 0, i64 0), i32* %3)
  %16 = getelementptr inbounds [100 x double], [100 x double]* %8, i64 0, i64 0
  store double 2.000000e+00, double* %16, align 16
  %17 = getelementptr inbounds [100 x double], [100 x double]* %8, i64 0, i64 1
  store double 3.000000e+00, double* %17, align 8
  %18 = load i32, i32* %3, align 4
  %19 = icmp eq i32 %18, 1
  br i1 %19, label %20, label %21

20:                                               ; preds = %14
  store double 2.000000e+00, double* %9, align 8
  br label %65

21:                                               ; preds = %14
  %22 = load i32, i32* %3, align 4
  %23 = icmp eq i32 %22, 2
  br i1 %23, label %24, label %25

24:                                               ; preds = %21
  store double 3.500000e+00, double* %9, align 8
  br label %64

25:                                               ; preds = %21
  store double 3.500000e+00, double* %9, align 8
  store i32 2, i32* %4, align 4
  br label %26

26:                                               ; preds = %60, %25
  %27 = load i32, i32* %4, align 4
  %28 = load i32, i32* %3, align 4
  %29 = icmp slt i32 %27, %28
  br i1 %29, label %30, label %63

30:                                               ; preds = %26
  %31 = load i32, i32* %4, align 4
  %32 = sub nsw i32 %31, 2
  %33 = sext i32 %32 to i64
  %34 = getelementptr inbounds [100 x double], [100 x double]* %8, i64 0, i64 %33
  %35 = load double, double* %34, align 8
  %36 = load i32, i32* %4, align 4
  %37 = sub nsw i32 %36, 1
  %38 = sext i32 %37 to i64
  %39 = getelementptr inbounds [100 x double], [100 x double]* %8, i64 0, i64 %38
  %40 = load double, double* %39, align 8
  %41 = fadd double %35, %40
  %42 = load i32, i32* %4, align 4
  %43 = sext i32 %42 to i64
  %44 = getelementptr inbounds [100 x double], [100 x double]* %8, i64 0, i64 %43
  store double %41, double* %44, align 8
  %45 = load i32, i32* %4, align 4
  %46 = sext i32 %45 to i64
  %47 = getelementptr inbounds [100 x double], [100 x double]* %8, i64 0, i64 %46
  %48 = load double, double* %47, align 8
  store double %48, double* %5, align 8
  %49 = load i32, i32* %4, align 4
  %50 = sub nsw i32 %49, 1
  %51 = sext i32 %50 to i64
  %52 = getelementptr inbounds [100 x double], [100 x double]* %8, i64 0, i64 %51
  %53 = load double, double* %52, align 8
  store double %53, double* %6, align 8
  %54 = load double, double* %5, align 8
  %55 = load double, double* %6, align 8
  %56 = fdiv double %54, %55
  store double %56, double* %7, align 8
  %57 = load double, double* %9, align 8
  %58 = load double, double* %7, align 8
  %59 = fadd double %57, %58
  store double %59, double* %9, align 8
  br label %60

60:                                               ; preds = %30
  %61 = load i32, i32* %4, align 4
  %62 = add nsw i32 %61, 1
  store i32 %62, i32* %4, align 4
  br label %26

63:                                               ; preds = %26
  br label %64

64:                                               ; preds = %63, %24
  br label %65

65:                                               ; preds = %64, %20
  %66 = load i32, i32* %2, align 4
  %67 = add nsw i32 %66, -1
  store i32 %67, i32* %2, align 4
  %68 = load double, double* %9, align 8
  %69 = call i32 (i8*, ...) @printf(i8* getelementptr inbounds ([6 x i8], [6 x i8]* @.str.1, i64 0, i64 0), double %68)
  br label %11

70:                                               ; preds = %11
  ret i32 0
}

declare dso_local i32 @__isoc99_scanf(i8*, ...) #1

declare dso_local i32 @printf(i8*, ...) #1


!llvm.module.flags = !{!0}
!llvm.ident = !{!1}

!0 = !{i32 1, !"wchar_size", i32 4}
!1 = !{!"clang version 10.0.0-4ubuntu1 "}
